; Function Attrs: mustprogress uwtable
define internal fastcc void @_ZN7testing8internalL20PrintCharsAsStringToIcEEvPKT_mPSo(ptr noundef readonly captures(none) %0, i64 noundef %1, ptr noundef nonnull %2) unnamed_addr #3 {
  %4 = tail call noundef nonnull align 8 dereferenceable(8) ptr @_ZSt16__ostream_insertIcSt11char_traitsIcEERSt13basic_ostreamIT_T0_ES6_PKS3_l(ptr noundef nonnull align 8 dereferenceable(8) %2, ptr noundef nonnull @.str.77, i64 noundef 1)
  %.not14 = icmp eq i64 %1, 0
  br i1 %.not14, label %._crit_edge, label %.lr.ph

._crit_edge:                                      ; preds = %_ZN7testing8internalL22PrintAsStringLiteralToEcPSo.exit, %3
  %5 = tail call noundef nonnull align 8 dereferenceable(8) ptr @_ZSt16__ostream_insertIcSt11char_traitsIcEERSt13basic_ostreamIT_T0_ES6_PKS3_l(ptr noundef nonnull align 8 dereferenceable(8) %2, ptr noundef nonnull @.str.77, i64 noundef 1)
  ret void

.lr.ph:                                           ; preds = %3, %_ZN7testing8internalL22PrintAsStringLiteralToEcPSo.exit
  %.013 = phi i1 [ %.0.i.i, %_ZN7testing8internalL22PrintAsStringLiteralToEcPSo.exit ], [ false, %3 ]
  %.01112 = phi i64 [ %23, %_ZN7testing8internalL22PrintAsStringLiteralToEcPSo.exit ], [ 0, %3 ]
  %6 = getelementptr inbounds nuw i8, ptr %0, i64 %.01112
  %7 = load i8, ptr %6, align 1
  br i1 %.013, label %8, label %14

8:                                                ; preds = %.lr.ph
  %9 = zext i8 %7 to i32
  %10 = tail call i32 @isxdigit(i32 noundef %9) #57
  %.not = icmp eq i32 %10, 0
  br i1 %.not, label %14, label %11

11:                                               ; preds = %8
  %12 = tail call noundef nonnull align 8 dereferenceable(8) ptr @_ZSt16__ostream_insertIcSt11char_traitsIcEERSt13basic_ostreamIT_T0_ES6_PKS3_l(ptr noundef nonnull align 8 dereferenceable(8) %2, ptr noundef nonnull @.str.431, i64 noundef 2)
  %13 = tail call noundef nonnull align 8 dereferenceable(8) ptr @_ZSt16__ostream_insertIcSt11char_traitsIcEERSt13basic_ostreamIT_T0_ES6_PKS3_l(ptr noundef nonnull align 8 dereferenceable(8) %2, ptr noundef nonnull @.str.77, i64 noundef 1)
  br label %14

14:                                               ; preds = %11, %8, %.lr.ph
  switch i8 %7, label %19 [
    i8 39, label %15
    i8 34, label %17
  ]

15:                                               ; preds = %14
  %16 = tail call noundef nonnull align 8 dereferenceable(8) ptr @_ZSt16__ostream_insertIcSt11char_traitsIcEERSt13basic_ostreamIT_T0_ES6_PKS3_l(ptr noundef nonnull align 8 dereferenceable(8) %2, ptr noundef nonnull @.str.323, i64 noundef 1)
  br label %_ZN7testing8internalL22PrintAsStringLiteralToEcPSo.exit

17:                                               ; preds = %14
  %18 = tail call noundef nonnull align 8 dereferenceable(8) ptr @_ZSt16__ostream_insertIcSt11char_traitsIcEERSt13basic_ostreamIT_T0_ES6_PKS3_l(ptr noundef nonnull align 8 dereferenceable(8) %2, ptr noundef nonnull @.str.432, i64 noundef 2)
  br label %_ZN7testing8internalL22PrintAsStringLiteralToEcPSo.exit

19:                                               ; preds = %14
  %20 = zext i8 %7 to i32
  %21 = tail call fastcc noundef i32 @_ZN7testing8internalL20PrintAsCharLiteralToIwwEENS0_10CharFormatET0_PSo(i32 noundef signext %20, ptr noundef nonnull %2)
  %22 = icmp eq i32 %21, 1
  br label %_ZN7testing8internalL22PrintAsStringLiteralToEcPSo.exit

_ZN7testing8internalL22PrintAsStringLiteralToEcPSo.exit: ; preds = %15, %17, %19
  %.0.i.i = phi i1 [ %22, %19 ], [ false, %17 ], [ false, %15 ]
  %23 = add nuw i64 %.01112, 1
  %exitcond.not = icmp eq i64 %23, %1
  br i1 %exitcond.not, label %._crit_edge, label %.lr.ph, !llvm.loop !926
}